Certificate:
    Data:
        Version: 3 (0x2)
        Serial Number: 927650371 (0x374ad243)
        Signature Algorithm: sha1WithRSAEncryption
        Issuer: C=US, O=Entrust.net, OU=www.entrust.net/CPS incorp. by ref. (limits liab.), OU=(c) 1999 Entrust.net Limited, CN=Entrust.net Secure Server Certification Authority
        Validity
            Not Before: May 25 16:09:40 1999 GMT
            Not After : May 25 16:39:40 2019 GMT
        Subject: C=US, O=Entrust.net, OU=www.entrust.net/CPS incorp. by ref. (limits liab.), OU=(c) 1999 Entrust.net Limited, CN=Entrust.net Secure Server Certification Authority
        Subject Public Key Info:
            Public Key Algorithm: rsaEncryption
            RSA Public Key: (1024 bit)
                Modulus (1024 bit):
                    00:cd:28:83:34:54:1b:89:f3:0f:af:37:91:31:ff:
                    af:31:60:c9:a8:e8:b2:10:68:ed:9f:e7:93:36:f1:
                    0a:64:bb:47:f5:04:17:3f:23:47:4d:c5:27:19:81:
                    26:0c:54:72:0d:88:2d:d9:1f:9a:12:9f:bc:b3:71:
                    d3:80:19:3f:47:66:7b:8c:35:28:d2:b9:0a:df:24:
                    da:9c:d6:50:79:81:7a:5a:d3:37:f7:c2:4a:d8:29:
                    92:26:64:d1:e4:98:6c:3a:00:8a:f5:34:9b:65:f8:
                    ed:e3:10:ff:fd:b8:49:58:dc:a0:de:82:39:6b:81:
                    b1:16:19:61:b9:54:b6:e6:43
                Exponent: 3 (0x3)
        X509v3 extensions:
            Netscape Cert Type: 
                SSL CA, S/MIME CA, Object Signing CA
            X509v3 CRL Distribution Points: 
                DirName:/C=US/O=Entrust.net/OU=www.entrust.net/CPS incorp. by ref. (limits liab.)/OU=(c) 1999 Entrust.net Limited/CN=Entrust.net Secure Server Certification Authority/CN=CRL1
                URI:http://www.entrust.net/CRL/net1.crl

            X509v3 Private Key Usage Period: 
                Not Before: May 25 16:09:40 1999 GMT, Not After: May 25 16:09:40 2019 GMT
            X509v3 Key Usage: 
                Certificate Sign, CRL Sign
            X509v3 Authority Key Identifier: 
                keyid:F0:17:62:13:55:3D:B3:FF:0A:00:6B:FB:50:84:97:F3:ED:62:D0:1A

            X509v3 Subject Key Identifier: 
                F0:17:62:13:55:3D:B3:FF:0A:00:6B:FB:50:84:97:F3:ED:62:D0:1A
            X509v3 Basic Constraints: 
                CA:TRUE
            1.2.840.113533.7.65.0: 
                0
..V4.0....
    Signature Algorithm: sha1WithRSAEncryption
        90:dc:30:02:fa:64:74:c2:a7:0a:a5:7c:21:8d:34:17:a8:fb:
        47:0e:ff:25:7c:8d:13:0a:fb:e4:98:b5:ef:8c:f8:c5:10:0d:
        f7:92:be:f1:c3:d5:d5:95:6a:04:bb:2c:ce:26:36:65:c8:31:
        c6:e7:ee:3f:e3:57:75:84:7a:11:ef:46:4f:18:f4:d3:98:bb:
        a8:87:32:ba:72:f6:3c:e2:3d:9f:d7:1d:d9:c3:60:43:8c:58:
        0e:22:96:2f:62:a3:2c:1f:ba:ad:05:ef:ab:32:78:87:a0:54:
        73:19:b5:5c:05:f9:52:3e:6d:2d:45:0b:f7:0a:93:ea:ed:06:
        f9:b2
-----BEGIN CERTIFICATE-----
MIIE2DCCBEGgAwIBAgIEN0rSQzANBgkqhkiG9w0BAQUFADCBwzELMAkGA1UEBhMC
VVMxFDASBgNVBAoTC0VudHJ1c3QubmV0MTswOQYDVQQLEzJ3d3cuZW50cnVzdC5u
ZXQvQ1BTIGluY29ycC4gYnkgcmVmLiAobGltaXRzIGxpYWIuKTElMCMGA1UECxMc
KGMpIDE5OTkgRW50cnVzdC5uZXQgTGltaXRlZDE6MDgGA1UEAxMxRW50cnVzdC5u
ZXQgU2VjdXJlIFNlcnZlciBDZXJ0aWZpY2F0aW9uIEF1dGhvcml0eTAeFw05OTA1
MjUxNjA5NDBaFw0xOTA1MjUxNjM5NDBaMIHDMQswCQYDVQQGEwJVUzEUMBIGA1UE
ChMLRW50cnVzdC5uZXQxOzA5BgNVBAsTMnd3dy5lbnRydXN0Lm5ldC9DUFMgaW5j
b3JwLiBieSByZWYuIChsaW1pdHMgbGlhYi4pMSUwIwYDVQQLExwoYykgMTk5OSBF
bnRydXN0Lm5ldCBMaW1pdGVkMTowOAYDVQQDEzFFbnRydXN0Lm5ldCBTZWN1cmUg
U2VydmVyIENlcnRpZmljYXRpb24gQXV0aG9yaXR5MIGdMA0GCSqGSIb3DQEBAQUA
A4GLADCBhwKBgQDNKIM0VBuJ8w+vN5Ex/68xYMmo6LIQaO2f55M28Qpku0f1BBc/
I0dNxScZgSYMVHINiC3ZH5oSn7yzcdOAGT9HZnuMNSjSuQrfJNqc1lB5gXpa0zf3
wkrYKZImZNHkmGw6AIr1NJtl+O3jEP/9uElY3KDegjlrgbEWGWG5VLbmQwIBA6OC
AdcwggHTMBEGCWCGSAGG+EIBAQQEAwIABzCCARkGA1UdHwSCARAwggEMMIHeoIHb
oIHYpIHVMIHSMQswCQYDVQQGEwJVUzEUMBIGA1UEChMLRW50cnVzdC5uZXQxOzA5
BgNVBAsTMnd3dy5lbnRydXN0Lm5ldC9DUFMgaW5jb3JwLiBieSByZWYuIChsaW1p
dHMgbGlhYi4pMSUwIwYDVQQLExwoYykgMTk5OSBFbnRydXN0Lm5ldCBMaW1pdGVk
MTowOAYDVQQDEzFFbnRydXN0Lm5ldCBTZWN1cmUgU2VydmVyIENlcnRpZmljYXRp
b24gQXV0aG9yaXR5MQ0wCwYDVQQDEwRDUkwxMCmgJ6AlhiNodHRwOi8vd3d3LmVu
dHJ1c3QubmV0L0NSTC9uZXQxLmNybDArBgNVHRAEJDAigA8xOTk5MDUyNTE2MDk0
MFqBDzIwMTkwNTI1MTYwOTQwWjALBgNVHQ8EBAMCAQYwHwYDVR0jBBgwFoAU8Bdi
E1U9s/8KAGv7UISX8+1i0BowHQYDVR0OBBYEFPAXYhNVPbP/CgBr+1CEl/PtYtAa
MAwGA1UdEwQFMAMBAf8wGQYJKoZIhvZ9B0EABAwwChsEVjQuMAMCBJAwDQYJKoZI
hvcNAQEFBQADgYEAkNwwAvpkdMKnCqV8IY00F6j7Rw7/JXyNEwr75Ji174z4xRAN
95K+8cPV1ZVqBLssziY2ZcgxxufuP+NXdYR6Ee9GTxj005i7qIcyunL2POI9n9cd
2cNgQ4xYDiKWL2KjLB+6rQXvqzJ4h6BUcxm1XAX5Uj5tLUUL9wqT6u0G+bI=
-----END CERTIFICATE-----
Certificate:
    Data:
        Version: 3 (0x2)
        Serial Number: 1116122016 (0x4286aba0)
        Signature Algorithm: sha1WithRSAEncryption
        Issuer: C=US, O=Entrust.net, OU=www.entrust.net/CPS incorp. by ref. (limits liab.), OU=(c) 1999 Entrust.net Limited, CN=Entrust.net Secure Server Certification Authority
        Validity
            Not Before: Jul 14 17:10:28 2006 GMT
            Not After : Jul 14 17:40:28 2014 GMT
        Subject: C=US, O=DigiCert Inc, OU=www.digicert.com, CN=DigiCert Global CA
        Subject Public Key Info:
            Public Key Algorithm: rsaEncryption
            RSA Public Key: (2048 bit)
                Modulus (2048 bit):
                    00:c4:3c:bc:cc:ba:ea:62:e6:9e:42:23:af:b4:b2:
                    11:ae:62:8d:d9:a1:d3:8f:cc:14:72:19:ed:99:f6:
                    fd:de:5d:bb:59:c0:b0:c2:af:6a:99:52:95:57:0b:
                    35:ff:e1:86:fa:af:a2:c3:c1:05:65:27:20:76:2f:
                    0a:54:25:7c:ea:2b:dd:95:41:57:9b:0f:3b:cf:47:
                    e8:01:06:8c:c5:44:48:fc:07:2e:f3:72:83:30:51:
                    94:9e:69:3a:83:a9:87:90:14:d9:5e:c4:a2:78:8f:
                    c1:3e:d4:19:61:0e:1a:e7:dc:1a:95:20:41:be:6f:
                    17:da:b8:1c:41:ee:98:b0:fa:d7:1d:35:3f:16:a7:
                    04:28:13:5d:3d:05:75:9a:2e:86:9e:2c:b0:17:87:
                    20:58:57:ef:e1:ea:55:60:b8:2c:70:21:ac:29:63:
                    0c:10:fc:60:bc:f9:d5:1c:37:64:d5:b4:fb:1e:ab:
                    26:39:46:88:a4:cb:cd:30:67:c0:26:79:e5:ca:68:
                    f9:22:d7:e5:d2:b1:bb:48:4c:9b:0b:98:5b:42:92:
                    e5:d2:ed:0e:47:30:fa:dd:27:56:63:6a:a5:01:c7:
                    8e:af:f0:4e:3b:1b:55:15:44:d5:3e:4d:57:1e:e1:
                    91:ea:b8:a0:8f:ce:3a:63:5f:96:89:ba:08:3e:fe:
                    44:bb
                Exponent: 65537 (0x10001)
        X509v3 extensions:
            X509v3 Basic Constraints: critical
                CA:TRUE, pathlen:0
            X509v3 Certificate Policies: 
                Policy: 1.2.840.113533.7.75.2
                  CPS: http://www.entrust.net/cps
                  User Notice:
                    Explicit Text: For use solely with SSL and S/MIME certificates issued by Digicert, Inc. to authorized subscribers.
DOES NOT represent any endorsement by Entrust Inc. or its affiliates as to the identity of any certificate holder.

            X509v3 Extended Key Usage: 
                TLS Web Server Authentication, TLS Web Client Authentication, E-mail Protection, OCSP Signing
            X509v3 CRL Distribution Points: 
                URI:http://crl.entrust.net/server1.crl
                DirName:/C=US/O=Entrust.net/OU=www.entrust.net/CPS incorp. by ref. (limits liab.)/OU=(c) 1999 Entrust.net Limited/CN=Entrust.net Secure Server Certification Authority/CN=CRL1

            X509v3 Key Usage: 
                Certificate Sign, CRL Sign
            X509v3 Authority Key Identifier: 
                keyid:F0:17:62:13:55:3D:B3:FF:0A:00:6B:FB:50:84:97:F3:ED:62:D0:1A

            X509v3 Subject Key Identifier: 
                A7:C7:13:A0:7A:01:3C:9D:EF:82:48:82:48:D5:73:51:B6:12:56:2A
            1.2.840.113533.7.65.0: 
                0
..V7.1....
    Signature Algorithm: sha1WithRSAEncryption
        4a:f1:b3:ce:68:69:e3:58:a3:61:ed:b6:16:c8:93:b1:18:30:
        3e:e0:72:df:4f:3d:e2:4d:e1:b8:fc:3f:c1:c9:e3:45:a9:5d:
        a9:c1:da:a3:e5:36:d7:8e:d6:0f:ad:36:af:6c:bc:44:e6:9a:
        46:94:a6:11:a0:d0:52:e7:da:55:b0:f6:1c:85:fb:63:52:7b:
        b6:99:8f:1f:e2:cb:47:64:a2:eb:08:65:e6:51:db:1c:4b:6d:
        7f:53:9f:1e:0d:31:93:d4:30:5d:1e:6e:01:07:27:60:5d:bb:
        d3:f4:e3:6c:1d:20:0f:75:2a:33:10:a7:b7:89:d7:a9:17:14:
        32:03
-----BEGIN CERTIFICATE-----
MIIGJDCCBY2gAwIBAgIEQoaroDANBgkqhkiG9w0BAQUFADCBwzELMAkGA1UEBhMC
VVMxFDASBgNVBAoTC0VudHJ1c3QubmV0MTswOQYDVQQLEzJ3d3cuZW50cnVzdC5u
ZXQvQ1BTIGluY29ycC4gYnkgcmVmLiAobGltaXRzIGxpYWIuKTElMCMGA1UECxMc
KGMpIDE5OTkgRW50cnVzdC5uZXQgTGltaXRlZDE6MDgGA1UEAxMxRW50cnVzdC5u
ZXQgU2VjdXJlIFNlcnZlciBDZXJ0aWZpY2F0aW9uIEF1dGhvcml0eTAeFw0wNjA3
MTQxNzEwMjhaFw0xNDA3MTQxNzQwMjhaMFwxCzAJBgNVBAYTAlVTMRUwEwYDVQQK
EwxEaWdpQ2VydCBJbmMxGTAXBgNVBAsTEHd3dy5kaWdpY2VydC5jb20xGzAZBgNV
BAMTEkRpZ2lDZXJ0IEdsb2JhbCBDQTCCASIwDQYJKoZIhvcNAQEBBQADggEPADCC
AQoCggEBAMQ8vMy66mLmnkIjr7SyEa5ijdmh04/MFHIZ7Zn2/d5du1nAsMKvaplS
lVcLNf/hhvqvosPBBWUnIHYvClQlfOor3ZVBV5sPO89H6AEGjMVESPwHLvNygzBR
lJ5pOoOph5AU2V7EoniPwT7UGWEOGufcGpUgQb5vF9q4HEHumLD61x01PxanBCgT
XT0FdZouhp4ssBeHIFhX7+HqVWC4LHAhrCljDBD8YLz51Rw3ZNW0+x6rJjlGiKTL
zTBnwCZ55cpo+SLX5dKxu0hMmwuYW0KS5dLtDkcw+t0nVmNqpQHHjq/wTjsbVRVE
1T5NVx7hkeq4oI/OOmNflom6CD7+RLsCAwEAAaOCAwUwggMBMBIGA1UdEwEB/wQI
MAYBAf8CAQAwggEyBgNVHSAEggEpMIIBJTCCASEGCSqGSIb2fQdLAjCCARIwJgYI
KwYBBQUHAgEWGmh0dHA6Ly93d3cuZW50cnVzdC5uZXQvY3BzMIHnBggrBgEFBQcC
AjCB2hqB10ZvciB1c2Ugc29sZWx5IHdpdGggU1NMIGFuZCBTL01JTUUgY2VydGlm
aWNhdGVzIGlzc3VlZCBieSBEaWdpY2VydCwgSW5jLiB0byBhdXRob3JpemVkIHN1
YnNjcmliZXJzLg0KRE9FUyBOT1QgcmVwcmVzZW50IGFueSBlbmRvcnNlbWVudCBi
eSBFbnRydXN0IEluYy4gb3IgaXRzIGFmZmlsaWF0ZXMgYXMgdG8gdGhlIGlkZW50
aXR5IG9mIGFueSBjZXJ0aWZpY2F0ZSBob2xkZXIuMDEGA1UdJQQqMCgGCCsGAQUF
BwMBBggrBgEFBQcDAgYIKwYBBQUHAwQGCCsGAQUFBwMJMIIBGAYDVR0fBIIBDzCC
AQswKKAmoCSGImh0dHA6Ly9jcmwuZW50cnVzdC5uZXQvc2VydmVyMS5jcmwwgd6g
gduggdikgdUwgdIxCzAJBgNVBAYTAlVTMRQwEgYDVQQKEwtFbnRydXN0Lm5ldDE7
MDkGA1UECxMyd3d3LmVudHJ1c3QubmV0L0NQUyBpbmNvcnAuIGJ5IHJlZi4gKGxp
bWl0cyBsaWFiLikxJTAjBgNVBAsTHChjKSAxOTk5IEVudHJ1c3QubmV0IExpbWl0
ZWQxOjA4BgNVBAMTMUVudHJ1c3QubmV0IFNlY3VyZSBTZXJ2ZXIgQ2VydGlmaWNh
dGlvbiBBdXRob3JpdHkxDTALBgNVBAMTBENSTDEwCwYDVR0PBAQDAgEGMB8GA1Ud
IwQYMBaAFPAXYhNVPbP/CgBr+1CEl/PtYtAaMB0GA1UdDgQWBBSnxxOgegE8ne+C
SIJI1XNRthJWKjAZBgkqhkiG9n0HQQAEDDAKGwRWNy4xAwIAgTANBgkqhkiG9w0B
AQUFAAOBgQBK8bPOaGnjWKNh7bYWyJOxGDA+4HLfTz3iTeG4/D/ByeNFqV2pwdqj
5TbXjtYPrTavbLxE5ppGlKYRoNBS59pVsPYchftjUnu2mY8f4stHZKLrCGXmUdsc
S21/U58eDTGT1DBdHm4BBydgXbvT9ONsHSAPdSozEKe3idepFxQyAw==
-----END CERTIFICATE-----
